(dp0
S'nb_duplicated_lines'
p1
I0
sS'undocumented_function'
p2
I0
sS'module'
p3
I1
sS'badname_function'
p4
I0
sS'dependencies'
p5
(dp6
sS'badname_const'
p7
I0
sS'badname_inlinevar'
p8
I0
sS'badname_class'
p9
I0
sS'undocumented_class'
p10
I0
sS'refactor'
p11
I2
sS'badname_argument'
p12
I0
sS'statement'
p13
I128
sS'percent_duplicated_lines'
p14
F0.0
sS'fatal'
p15
I3
sS'method'
p16
I14
sS'function'
p17
I0
sS'badname_variable'
p18
I1
sS'undocumented_method'
p19
I0
sS'by_msg'
p20
(dp21
S'E0203'
p22
I1
sS'R0902'
p23
I1
sS'F0401'
p24
I3
sS'E1205'
p25
I1
sS'C0103'
p26
I1
sS'W0611'
p27
I2
sS'W0622'
p28
I1
sS'W0201'
p29
I1
sS'R0201'
p30
I1
sS'C0301'
p31
I1
ssS'convention'
p32
I2
sS'badname_module'
p33
I0
sS'undocumented_module'
p34
I0
sS'class'
p35
I1
sS'badname_method'
p36
I0
sS'by_module'
p37
(dp38
S'agent_base'
p39
(dp40
S'info'
p41
I0
sg32
I2
sg11
I2
sS'warning'
p42
I4
sg13
I0
sS'error'
p43
I2
sg15
I3
sssg41
I0
sg42
I4
sg43
I2
sS'badname_attr'
p44
I0
sS'cycles'
p45
(lp46
s.