(dp0
S'nb_duplicated_lines'
p1
I0
sS'undocumented_function'
p2
I0
sS'module'
p3
I1
sS'badname_function'
p4
I0
sS'dependencies'
p5
(dp6
S'simplejson'
p7
c__builtin__
set
p8
((lp9
S'amqp_agent'
p10
atp11
Rp12
ssS'badname_const'
p13
I0
sS'badname_inlinevar'
p14
I0
sS'badname_class'
p15
I0
sS'undocumented_class'
p16
I0
sS'refactor'
p17
I0
sS'badname_argument'
p18
I0
sS'statement'
p19
I184
sS'percent_duplicated_lines'
p20
F0.0
sS'fatal'
p21
I8
sS'method'
p22
I19
sS'function'
p23
I1
sS'badname_variable'
p24
I0
sS'undocumented_method'
p25
I1
sS'by_msg'
p26
(dp27
S'F0401'
p28
I8
sS'E1101'
p29
I22
sS'W0613'
p30
I2
sS'C0111'
p31
I1
sS'W0611'
p32
I3
sS'W0142'
p33
I4
sS'W0703'
p34
I1
sS'W1001'
p35
I1
sS'W0612'
p36
I1
sS'W1201'
p37
I1
sS'C0301'
p38
I2
sS'E1002'
p39
I4
ssS'convention'
p40
I3
sS'badname_module'
p41
I0
sS'undocumented_module'
p42
I0
sS'class'
p43
I1
sS'badname_method'
p44
I0
sS'by_module'
p45
(dp46
g10
(dp47
S'info'
p48
I0
sg40
I3
sg17
I0
sS'warning'
p49
I13
sg19
I0
sS'error'
p50
I26
sg21
I8
sssg48
I0
sg49
I13
sg50
I26
sS'badname_attr'
p51
I0
sS'cycles'
p52
(lp53
s.